; Function Attrs: mustprogress uwtable
define hidden void @_ZN12polymorphism12substitutionclERK10ref_vectorI4sort11ast_managerE(ptr dead_on_unwind noalias writable sret(%class.ref_vector) align 8 initializes((0, 16)) %0, ptr noundef nonnull readonly align 8 captures(none) dereferenceable(48) %1, ptr noundef nonnull readonly align 8 captures(none) dereferenceable(16) %2) local_unnamed_addr #3 align 2 personality ptr @__gxx_personality_v0 {
  %4 = alloca %class.obj_ref, align 8
  %5 = load ptr, ptr %1, align 8, !tbaa !3
  %6 = ptrtoint ptr %5 to i64
  store i64 %6, ptr %0, align 8, !tbaa !20
  %7 = getelementptr inbounds nuw i8, ptr %0, i64 8
  store ptr null, ptr %7, align 8, !tbaa !21
  %8 = getelementptr inbounds nuw i8, ptr %2, i64 8
  %9 = load ptr, ptr %8, align 8, !tbaa !21
  %10 = icmp eq ptr %9, null
  br i1 %10, label %._crit_edge, label %_ZNK15ref_vector_coreI4sort19ref_manager_wrapperIS0_11ast_managerEE3endEv.exit

_ZNK15ref_vector_coreI4sort19ref_manager_wrapperIS0_11ast_managerEE3endEv.exit: ; preds = %3
  %11 = getelementptr inbounds i8, ptr %9, i64 -4
  %12 = load i32, ptr %11, align 4, !tbaa !22
  %13 = zext i32 %12 to i64
  %14 = getelementptr inbounds nuw ptr, ptr %9, i64 %13
  %.not18 = icmp eq i32 %12, 0
  br i1 %.not18, label %._crit_edge, label %.lr.ph

.lr.ph:                                           ; preds = %_ZNK15ref_vector_coreI4sort19ref_manager_wrapperIS0_11ast_managerEE3endEv.exit, %_ZN7obj_refI4sort11ast_managerED2Ev.exit
  %.019 = phi ptr [ %33, %_ZN7obj_refI4sort11ast_managerED2Ev.exit ], [ %9, %_ZNK15ref_vector_coreI4sort19ref_manager_wrapperIS0_11ast_managerEE3endEv.exit ]
  %15 = load ptr, ptr %.019, align 8, !tbaa !23
  call void @llvm.lifetime.start.p0(i64 16, ptr nonnull %4) #20
  invoke void @_ZN12polymorphism12substitutionclEP4sort(ptr dead_on_unwind nonnull writable sret(%class.obj_ref) align 8 %4, ptr noundef nonnull align 8 dereferenceable(48) %1, ptr noundef %15)
          to label %16 unwind label %34

16:                                               ; preds = %.lr.ph
  %17 = load ptr, ptr %4, align 8, !tbaa !25
  %18 = load ptr, ptr %7, align 8, !tbaa !21
  %19 = icmp eq ptr %18, null
  br i1 %19, label %26, label %20

20:                                               ; preds = %16
  %21 = getelementptr inbounds i8, ptr %18, i64 -4
  %22 = load i32, ptr %21, align 4, !tbaa !22
  %23 = getelementptr inbounds i8, ptr %18, i64 -8
  %24 = load i32, ptr %23, align 4, !tbaa !22
  %25 = icmp eq i32 %22, %24
  br i1 %25, label %26, label %_ZN7obj_refI4sort11ast_managerED2Ev.exit

26:                                               ; preds = %20, %16
  invoke void @_ZN6vectorIP4sortLb0EjE13expand_vectorEv(ptr noundef nonnull align 8 dereferenceable(8) %7)
          to label %.noexc unwind label %36

.noexc:                                           ; preds = %26
  %.pre.i.i = load ptr, ptr %7, align 8, !tbaa !21
  %.phi.trans.insert.i.i = getelementptr inbounds i8, ptr %.pre.i.i, i64 -4
  %.pre2.i.i = load i32, ptr %.phi.trans.insert.i.i, align 4, !tbaa !22
  br label %_ZN7obj_refI4sort11ast_managerED2Ev.exit

_ZN7obj_refI4sort11ast_managerED2Ev.exit:         ; preds = %20, %.noexc
  %27 = phi i32 [ %.pre2.i.i, %.noexc ], [ %22, %20 ]
  %28 = phi ptr [ %.pre.i.i, %.noexc ], [ %18, %20 ]
  %29 = getelementptr inbounds i8, ptr %28, i64 -4
  %30 = zext i32 %27 to i64
  %31 = getelementptr inbounds nuw ptr, ptr %28, i64 %30
  store ptr %17, ptr %31, align 8, !tbaa !23
  %32 = add i32 %27, 1
  store i32 %32, ptr %29, align 4, !tbaa !22
  call void @llvm.lifetime.end.p0(i64 16, ptr nonnull %4) #20
  %33 = getelementptr inbounds nuw i8, ptr %.019, i64 8
  %.not = icmp eq ptr %33, %14
  br i1 %.not, label %._crit_edge, label %.lr.ph

34:                                               ; preds = %.lr.ph
  %35 = landingpad { ptr, i32 }
          cleanup
  br label %38

36:                                               ; preds = %26
  %37 = landingpad { ptr, i32 }
          cleanup
  call void @_ZN7obj_refI4sort11ast_managerED2Ev(ptr noundef nonnull align 8 dereferenceable(16) %4) #20
  br label %38

38:                                               ; preds = %36, %34
  %.pn = phi { ptr, i32 } [ %37, %36 ], [ %35, %34 ]
  call void @llvm.lifetime.end.p0(i64 16, ptr nonnull %4) #20
  call void @_ZN15ref_vector_coreI4sort19ref_manager_wrapperIS0_11ast_managerEED2Ev(ptr noundef nonnull align 8 dereferenceable(16) %0) #20
  resume { ptr, i32 } %.pn

._crit_edge:                                      ; preds = %_ZN7obj_refI4sort11ast_managerED2Ev.exit, %3, %_ZNK15ref_vector_coreI4sort19ref_manager_wrapperIS0_11ast_managerEE3endEv.exit
  ret void
}